; Function Attrs: nounwind uwtable
define dso_local ptr @lua_pushfstring(ptr noundef %0, ptr noundef %1, ...) local_unnamed_addr #2 {
  %3 = alloca [1 x %struct.__va_list_tag], align 16
  call void @llvm.lifetime.start.p0(i64 24, ptr nonnull %3) #14
  %4 = getelementptr inbounds nuw i8, ptr %0, i64 32
  %5 = load ptr, ptr %4, align 8, !tbaa !29
  %6 = getelementptr inbounds nuw i8, ptr %5, i64 120
  %7 = load i64, ptr %6, align 8, !tbaa !38
  %8 = getelementptr inbounds nuw i8, ptr %5, i64 112
  %9 = load i64, ptr %8, align 8, !tbaa !39
  %.not = icmp ult i64 %7, %9
  br i1 %.not, label %11, label %10

10:                                               ; preds = %2
  tail call void @luaC_step(ptr noundef nonnull %0) #14
  br label %11

11:                                               ; preds = %10, %2
  call void @llvm.va_start.p0(ptr nonnull %3)
  %12 = call ptr @luaO_pushvfstring(ptr noundef nonnull %0, ptr noundef %1, ptr noundef nonnull %3) #14
  call void @llvm.va_end.p0(ptr nonnull %3)
  call void @llvm.lifetime.end.p0(i64 24, ptr nonnull %3) #14
  ret ptr %12
}